target datalayout = "e-m:e-p270:32:32-p271:32:32-p272:64:64-i64:64-i128:128-f80:128-n8:16:32:64-S128"
target triple = "x86_64-unknown-linux-gnu"

%"class.cvc5::internal::NodeBuilder" = type <{ %"class.cvc5::internal::expr::NodeValue", [10 x ptr], ptr, ptr, i32, [4 x i8] }>
%"class.cvc5::internal::expr::NodeValue" = type { i64, i16, i32, [0 x ptr] }

; Function Attrs: mustprogress uwtable
define linkonce_odr hidden void @_ZN4cvc58internal4expr9NodeValue3decEv(ptr noundef nonnull align 8 dereferenceable(16) %this) #4 comdat align 2 {
entry:
  %this.addr = alloca ptr, align 8
  store ptr %this, ptr %this.addr, align 8
  %this1 = load ptr, ptr %this.addr, align 8
  %bf.load = load i64, ptr %this1, align 8
  %bf.lshr = lshr i64 %bf.load, 40
  %bf.clear = and i64 %bf.lshr, 1048575
  %bf.cast = trunc i64 %bf.clear to i32
  %cmp = icmp ult i32 %bf.cast, 1048575
  br i1 %cmp, label %if.then, label %if.end14

if.then:                                          ; preds = %entry
  %bf.load2 = load i64, ptr %this1, align 8
  %bf.lshr3 = lshr i64 %bf.load2, 40
  %bf.clear4 = and i64 %bf.lshr3, 1048575
  %bf.cast5 = trunc i64 %bf.clear4 to i32
  %dec = add i32 %bf.cast5, -1
  %0 = zext i32 %dec to i64
  %bf.load6 = load i64, ptr %this1, align 8
  %bf.value = and i64 %0, 1048575
  %bf.shl = shl i64 %bf.value, 40
  %bf.clear7 = and i64 %bf.load6, -1152920405095219201
  %bf.set = or i64 %bf.clear7, %bf.shl
  store i64 %bf.set, ptr %this1, align 8
  %bf.load8 = load i64, ptr %this1, align 8
  %bf.lshr9 = lshr i64 %bf.load8, 40
  %bf.clear10 = and i64 %bf.lshr9, 1048575
  %bf.cast11 = trunc i64 %bf.clear10 to i32
  %cmp12 = icmp eq i32 %bf.cast11, 0
  br i1 %cmp12, label %if.then13, label %if.end

if.then13:                                        ; preds = %if.then
  call void @_ZN4cvc58internal4expr9NodeValue15markForDeletionEv(ptr noundef nonnull align 8 dereferenceable(16) %this1)
  br label %if.end

if.end:                                           ; preds = %if.then13, %if.then
  br label %if.end14

if.end14:                                         ; preds = %if.end, %entry
  ret void
}

; Function Attrs: mustprogress nounwind uwtable
define linkonce_odr hidden noundef ptr @_ZN4cvc58internal4expr9NodeValue6nv_endEv(ptr noundef nonnull align 8 dereferenceable(16) %this) #5 comdat align 2 {
entry:
  %this.addr = alloca ptr, align 8
  store ptr %this, ptr %this.addr, align 8
  %this1 = load ptr, ptr %this.addr, align 8
  %d_children = getelementptr inbounds %"class.cvc5::internal::expr::NodeValue", ptr %this1, i32 0, i32 3
  %arraydecay = getelementptr inbounds [0 x ptr], ptr %d_children, i64 0, i64 0
  %d_nchildren = getelementptr inbounds %"class.cvc5::internal::expr::NodeValue", ptr %this1, i32 0, i32 2
  %bf.load = load i32, ptr %d_nchildren, align 4
  %bf.clear = and i32 %bf.load, 67108863
  %idx.ext = sext i32 %bf.clear to i64
  %add.ptr = getelementptr inbounds ptr, ptr %arraydecay, i64 %idx.ext
  ret ptr %add.ptr
}

; Function Attrs: mustprogress nounwind uwtable
define linkonce_odr hidden noundef ptr @_ZN4cvc58internal4expr9NodeValue8nv_beginEv(ptr noundef nonnull align 8 dereferenceable(16) %this) #5 comdat align 2 {
entry:
  %this.addr = alloca ptr, align 8
  store ptr %this, ptr %this.addr, align 8
  %this1 = load ptr, ptr %this.addr, align 8
  %d_children = getelementptr inbounds %"class.cvc5::internal::expr::NodeValue", ptr %this1, i32 0, i32 3
  %arraydecay = getelementptr inbounds [0 x ptr], ptr %d_children, i64 0, i64 0
  ret ptr %arraydecay
}

; Function Attrs: mustprogress nounwind uwtable
define linkonce_odr hidden noundef i32 @_ZN4cvc58internal4expr9NodeValue11kindToDKindENS0_4kind6Kind_tE(i32 noundef %k) #5 comdat align 2 {
entry:
  %k.addr = alloca i32, align 4
  store i32 %k, ptr %k.addr, align 4
  %0 = load i32, ptr %k.addr, align 4
  %and = and i32 %0, 1023
  ret i32 %and
}

; Function Attrs: mustprogress nounwind uwtable
define hidden void @_ZN4cvc58internal11NodeBuilder9setUnusedEv(ptr noundef nonnull align 8 dereferenceable(116) %this) #5 align 2 {
entry:
  %this.addr = alloca ptr, align 8
  store ptr %this, ptr %this.addr, align 8
  %this1 = load ptr, ptr %this.addr, align 8
  %d_inlineNv = getelementptr inbounds %"class.cvc5::internal::NodeBuilder", ptr %this1, i32 0, i32 0
  %d_nv = getelementptr inbounds %"class.cvc5::internal::NodeBuilder", ptr %this1, i32 0, i32 2
  store ptr %d_inlineNv, ptr %d_nv, align 8
  ret void
}

; Function Attrs: mustprogress uwtable
define hidden void @_ZN4cvc58internal11NodeBuilder13decrRefCountsEv(ptr noundef nonnull align 8 dereferenceable(116) %this) #4 align 2 {
entry:
  %this.addr = alloca ptr, align 8
  %i = alloca ptr, align 8
  store ptr %this, ptr %this.addr, align 8
  %this1 = load ptr, ptr %this.addr, align 8
  %d_inlineNv = getelementptr inbounds %"class.cvc5::internal::NodeBuilder", ptr %this1, i32 0, i32 0
  %call = call noundef ptr @_ZN4cvc58internal4expr9NodeValue8nv_beginEv(ptr noundef nonnull align 8 dereferenceable(16) %d_inlineNv)
  store ptr %call, ptr %i, align 8
  br label %for.cond

for.cond:                                         ; preds = %for.inc, %entry
  %0 = load ptr, ptr %i, align 8
  %d_inlineNv2 = getelementptr inbounds %"class.cvc5::internal::NodeBuilder", ptr %this1, i32 0, i32 0
  %call3 = call noundef ptr @_ZN4cvc58internal4expr9NodeValue6nv_endEv(ptr noundef nonnull align 8 dereferenceable(16) %d_inlineNv2)
  %cmp = icmp ne ptr %0, %call3
  br i1 %cmp, label %for.body, label %for.end

for.body:                                         ; preds = %for.cond
  %1 = load ptr, ptr %i, align 8
  %2 = load ptr, ptr %1, align 8
  call void @_ZN4cvc58internal4expr9NodeValue3decEv(ptr noundef nonnull align 8 dereferenceable(16) %2)
  br label %for.inc

for.inc:                                          ; preds = %for.body
  %3 = load ptr, ptr %i, align 8
  %incdec.ptr = getelementptr inbounds ptr, ptr %3, i32 1
  store ptr %incdec.ptr, ptr %i, align 8
  br label %for.cond, !llvm.loop !7

for.end:                                          ; preds = %for.cond
  %d_inlineNv4 = getelementptr inbounds %"class.cvc5::internal::NodeBuilder", ptr %this1, i32 0, i32 0
  %d_nchildren = getelementptr inbounds %"class.cvc5::internal::expr::NodeValue", ptr %d_inlineNv4, i32 0, i32 2
  %bf.load = load i32, ptr %d_nchildren, align 4
  %bf.clear = and i32 %bf.load, -67108864
  %bf.set = or i32 %bf.clear, 0
  store i32 %bf.set, ptr %d_nchildren, align 4
  ret void
}

; Function Attrs: mustprogress nounwind uwtable
define hidden noundef zeroext i1 @_ZNK4cvc58internal11NodeBuilder6isUsedEv(ptr noundef nonnull align 8 dereferenceable(116) %this) #5 align 2 {
entry:
  %this.addr = alloca ptr, align 8
  store ptr %this, ptr %this.addr, align 8
  %this1 = load ptr, ptr %this.addr, align 8
  %d_nv = getelementptr inbounds %"class.cvc5::internal::NodeBuilder", ptr %this1, i32 0, i32 2
  %0 = load ptr, ptr %d_nv, align 8
  %cmp = icmp eq ptr %0, null
  ret i1 %cmp
}

; Function Attrs: mustprogress uwtable
define hidden void @_ZN4cvc58internal11NodeBuilder7deallocEv(ptr noundef nonnull align 8 dereferenceable(116) %this) #4 align 2 {
entry:
  %this.addr = alloca ptr, align 8
  %i = alloca ptr, align 8
  store ptr %this, ptr %this.addr, align 8
  %this1 = load ptr, ptr %this.addr, align 8
  %d_nv = getelementptr inbounds %"class.cvc5::internal::NodeBuilder", ptr %this1, i32 0, i32 2
  %0 = load ptr, ptr %d_nv, align 8
  %call = call noundef ptr @_ZN4cvc58internal4expr9NodeValue8nv_beginEv(ptr noundef nonnull align 8 dereferenceable(16) %0)
  store ptr %call, ptr %i, align 8
  br label %for.cond

for.cond:                                         ; preds = %for.inc, %entry
  %1 = load ptr, ptr %i, align 8
  %d_nv2 = getelementptr inbounds %"class.cvc5::internal::NodeBuilder", ptr %this1, i32 0, i32 2
  %2 = load ptr, ptr %d_nv2, align 8
  %call3 = call noundef ptr @_ZN4cvc58internal4expr9NodeValue6nv_endEv(ptr noundef nonnull align 8 dereferenceable(16) %2)
  %cmp = icmp ne ptr %1, %call3
  br i1 %cmp, label %for.body, label %for.end

for.body:                                         ; preds = %for.cond
  %3 = load ptr, ptr %i, align 8
  %4 = load ptr, ptr %3, align 8
  call void @_ZN4cvc58internal4expr9NodeValue3decEv(ptr noundef nonnull align 8 dereferenceable(16) %4)
  br label %for.inc

for.inc:                                          ; preds = %for.body
  %5 = load ptr, ptr %i, align 8
  %incdec.ptr = getelementptr inbounds ptr, ptr %5, i32 1
  store ptr %incdec.ptr, ptr %i, align 8
  br label %for.cond, !llvm.loop !6

for.end:                                          ; preds = %for.cond
  %d_nv4 = getelementptr inbounds %"class.cvc5::internal::NodeBuilder", ptr %this1, i32 0, i32 2
  %6 = load ptr, ptr %d_nv4, align 8
  call void @free(ptr noundef %6) #3
  %d_inlineNv = getelementptr inbounds %"class.cvc5::internal::NodeBuilder", ptr %this1, i32 0, i32 0
  %d_nv5 = getelementptr inbounds %"class.cvc5::internal::NodeBuilder", ptr %this1, i32 0, i32 2
  store ptr %d_inlineNv, ptr %d_nv5, align 8
  %d_nvMaxChildren = getelementptr inbounds %"class.cvc5::internal::NodeBuilder", ptr %this1, i32 0, i32 4
  store i32 10, ptr %d_nvMaxChildren, align 8
  ret void
}

; Function Attrs: mustprogress nounwind uwtable
define hidden noundef zeroext i1 @_ZNK4cvc58internal11NodeBuilder13nvIsAllocatedEv(ptr noundef nonnull align 8 dereferenceable(116) %this) #5 align 2 {
entry:
  %this.addr = alloca ptr, align 8
  store ptr %this, ptr %this.addr, align 8
  %this1 = load ptr, ptr %this.addr, align 8
  %d_nv = getelementptr inbounds %"class.cvc5::internal::NodeBuilder", ptr %this1, i32 0, i32 2
  %0 = load ptr, ptr %d_nv, align 8
  %d_inlineNv = getelementptr inbounds %"class.cvc5::internal::NodeBuilder", ptr %this1, i32 0, i32 0
  %cmp = icmp ne ptr %0, %d_inlineNv
  br i1 %cmp, label %land.rhs, label %land.end

land.rhs:                                         ; preds = %entry
  %d_nv2 = getelementptr inbounds %"class.cvc5::internal::NodeBuilder", ptr %this1, i32 0, i32 2
  %1 = load ptr, ptr %d_nv2, align 8
  %cmp3 = icmp ne ptr %1, null
  br label %land.end

land.end:                                         ; preds = %land.rhs, %entry
  %2 = phi i1 [ false, %entry ], [ %cmp3, %land.rhs ]
  ret i1 %2
}

; Function Attrs: mustprogress uwtable
define hidden void @_ZN4cvc58internal11NodeBuilder5clearENS0_4kind6Kind_tE(ptr noundef nonnull align 8 dereferenceable(116) %this, i32 noundef %k) #4 align 2 {
entry:
  %this.addr = alloca ptr, align 8
  %k.addr = alloca i32, align 4
  %i = alloca ptr, align 8
  store ptr %this, ptr %this.addr, align 8
  store i32 %k, ptr %k.addr, align 4
  %this1 = load ptr, ptr %this.addr, align 8
  %call = call noundef zeroext i1 @_ZNK4cvc58internal11NodeBuilder13nvIsAllocatedEv(ptr noundef nonnull align 8 dereferenceable(116) %this1)
  br i1 %call, label %if.then, label %if.else

if.then:                                          ; preds = %entry
  call void @_ZN4cvc58internal11NodeBuilder7deallocEv(ptr noundef nonnull align 8 dereferenceable(116) %this1)
  br label %if.end5

if.else:                                          ; preds = %entry
  %call2 = call noundef zeroext i1 @_ZNK4cvc58internal11NodeBuilder6isUsedEv(ptr noundef nonnull align 8 dereferenceable(116) %this1)
  %lnot = xor i1 %call2, true
  br i1 %lnot, label %if.then3, label %if.else4

if.then3:                                         ; preds = %if.else
  call void @_ZN4cvc58internal11NodeBuilder13decrRefCountsEv(ptr noundef nonnull align 8 dereferenceable(116) %this1)
  br label %if.end

if.else4:                                         ; preds = %if.else
  call void @_ZN4cvc58internal11NodeBuilder9setUnusedEv(ptr noundef nonnull align 8 dereferenceable(116) %this1)
  br label %if.end

if.end:                                           ; preds = %if.else4, %if.then3
  br label %if.end5

if.end5:                                          ; preds = %if.end, %if.then
  %0 = load i32, ptr %k.addr, align 4
  %call6 = call noundef i32 @_ZN4cvc58internal4expr9NodeValue11kindToDKindENS0_4kind6Kind_tE(i32 noundef %0)
  %d_inlineNv = getelementptr inbounds %"class.cvc5::internal::NodeBuilder", ptr %this1, i32 0, i32 0
  %d_kind = getelementptr inbounds %"class.cvc5::internal::expr::NodeValue", ptr %d_inlineNv, i32 0, i32 1
  %1 = trunc i32 %call6 to i16
  %bf.load = load i16, ptr %d_kind, align 8
  %bf.value = and i16 %1, 1023
  %bf.clear = and i16 %bf.load, -1024
  %bf.set = or i16 %bf.clear, %bf.value
  store i16 %bf.set, ptr %d_kind, align 8
  %d_inlineNv7 = getelementptr inbounds %"class.cvc5::internal::NodeBuilder", ptr %this1, i32 0, i32 0
  %call8 = call noundef ptr @_ZN4cvc58internal4expr9NodeValue8nv_beginEv(ptr noundef nonnull align 8 dereferenceable(16) %d_inlineNv7)
  store ptr %call8, ptr %i, align 8
  br label %for.cond

for.cond:                                         ; preds = %for.inc, %if.end5
  %2 = load ptr, ptr %i, align 8
  %d_inlineNv9 = getelementptr inbounds %"class.cvc5::internal::NodeBuilder", ptr %this1, i32 0, i32 0
  %call10 = call noundef ptr @_ZN4cvc58internal4expr9NodeValue6nv_endEv(ptr noundef nonnull align 8 dereferenceable(16) %d_inlineNv9)
  %cmp = icmp ne ptr %2, %call10
  br i1 %cmp, label %for.body, label %for.end

for.body:                                         ; preds = %for.cond
  %3 = load ptr, ptr %i, align 8
  %4 = load ptr, ptr %3, align 8
  call void @_ZN4cvc58internal4expr9NodeValue3decEv(ptr noundef nonnull align 8 dereferenceable(16) %4)
  br label %for.inc

for.inc:                                          ; preds = %for.body
  %5 = load ptr, ptr %i, align 8
  %incdec.ptr = getelementptr inbounds ptr, ptr %5, i32 1
  store ptr %incdec.ptr, ptr %i, align 8
  br label %for.cond, !llvm.loop !8

for.end:                                          ; preds = %for.cond
  %d_inlineNv11 = getelementptr inbounds %"class.cvc5::internal::NodeBuilder", ptr %this1, i32 0, i32 0
  %d_nchildren = getelementptr inbounds %"class.cvc5::internal::expr::NodeValue", ptr %d_inlineNv11, i32 0, i32 2
  %bf.load12 = load i32, ptr %d_nchildren, align 4
  %bf.clear13 = and i32 %bf.load12, -67108864
  %bf.set14 = or i32 %bf.clear13, 0
  store i32 %bf.set14, ptr %d_nchildren, align 4
  %6 = load i32, ptr %k.addr, align 4
  %cmp15 = icmp eq i32 %6, -1
  %cond = select i1 %cmp15, i32 0, i32 1
  %conv = sext i32 %cond to i64
  %d_inlineNv16 = getelementptr inbounds %"class.cvc5::internal::NodeBuilder", ptr %this1, i32 0, i32 0
  %bf.load17 = load i64, ptr %d_inlineNv16, align 8
  %bf.value18 = and i64 %conv, 1099511627775
  %bf.clear19 = and i64 %bf.load17, -1099511627776
  %bf.set20 = or i64 %bf.clear19, %bf.value18
  store i64 %bf.set20, ptr %d_inlineNv16, align 8
  ret void
}