; Function Attrs: mustprogress uwtable
define hidden void @_ZN4cvc58internal11NodeBuilder5clearENS0_4kind6Kind_tE(ptr noundef nonnull align 8 dereferenceable(116) %this, i32 noundef %k) local_unnamed_addr #3 align 2 {
entry:
  %d_nv.i = getelementptr inbounds i8, ptr %this, i64 96
  %0 = load ptr, ptr %d_nv.i, align 8
  %cmp.not.i = icmp ne ptr %0, %this
  %cmp3.i = icmp ne ptr %0, null
  %spec.select.i = and i1 %cmp.not.i, %cmp3.i
  br i1 %spec.select.i, label %if.then, label %if.else

if.then:                                          ; preds = %entry
  %d_nchildren.i6.i = getelementptr inbounds i8, ptr %0, i64 12
  %bf.load.i7.i = load i32, ptr %d_nchildren.i6.i, align 4
  %bf.clear.i8.i = and i32 %bf.load.i7.i, 67108863
  %cmp.not11.i = icmp eq i32 %bf.clear.i8.i, 0
  br i1 %cmp.not11.i, label %_ZN4cvc58internal11NodeBuilder7deallocEv.exit, label %for.body.preheader.i

for.body.preheader.i:                             ; preds = %if.then
  %d_children.i.i = getelementptr inbounds i8, ptr %0, i64 16
  br label %for.body.i

for.body.i:                                       ; preds = %_ZN4cvc58internal4expr9NodeValue3decEv.exit.i, %for.body.preheader.i
  %i.012.i = phi ptr [ %incdec.ptr.i, %_ZN4cvc58internal4expr9NodeValue3decEv.exit.i ], [ %d_children.i.i, %for.body.preheader.i ]
  %1 = load ptr, ptr %i.012.i, align 8
  %bf.load.i4.i = load i64, ptr %1, align 8
  %2 = and i64 %bf.load.i4.i, 1152920405095219200
  %cmp.not.i.i = icmp eq i64 %2, 1152920405095219200
  br i1 %cmp.not.i.i, label %_ZN4cvc58internal4expr9NodeValue3decEv.exit.i, label %if.then.i.i

if.then.i.i:                                      ; preds = %for.body.i
  %bf.value.i.i = add i64 %bf.load.i4.i, 1152920405095219200
  %bf.shl.i.i = and i64 %bf.value.i.i, 1152920405095219200
  %bf.clear7.i.i = and i64 %bf.load.i4.i, -1152920405095219201
  %bf.set.i.i = or disjoint i64 %bf.shl.i.i, %bf.clear7.i.i
  store i64 %bf.set.i.i, ptr %1, align 8
  %cmp12.i.i = icmp eq i64 %bf.shl.i.i, 0
  br i1 %cmp12.i.i, label %if.then13.i.i, label %_ZN4cvc58internal4expr9NodeValue3decEv.exit.i

if.then13.i.i:                                    ; preds = %if.then.i.i
  tail call void @_ZN4cvc58internal4expr9NodeValue15markForDeletionEv(ptr noundef nonnull align 8 dereferenceable(16) %1)
  br label %_ZN4cvc58internal4expr9NodeValue3decEv.exit.i

_ZN4cvc58internal4expr9NodeValue3decEv.exit.i:    ; preds = %if.then13.i.i, %if.then.i.i, %for.body.i
  %incdec.ptr.i = getelementptr inbounds i8, ptr %i.012.i, i64 8
  %3 = load ptr, ptr %d_nv.i, align 8
  %d_children.i3.i = getelementptr inbounds i8, ptr %3, i64 16
  %d_nchildren.i.i = getelementptr inbounds i8, ptr %3, i64 12
  %bf.load.i.i = load i32, ptr %d_nchildren.i.i, align 4
  %bf.clear.i.i = and i32 %bf.load.i.i, 67108863
  %idx.ext.i.i = zext nneg i32 %bf.clear.i.i to i64
  %add.ptr.i.i = getelementptr inbounds ptr, ptr %d_children.i3.i, i64 %idx.ext.i.i
  %cmp.not.i5 = icmp eq ptr %incdec.ptr.i, %add.ptr.i.i
  br i1 %cmp.not.i5, label %_ZN4cvc58internal11NodeBuilder7deallocEv.exit, label %for.body.i, !llvm.loop !6

_ZN4cvc58internal11NodeBuilder7deallocEv.exit:    ; preds = %_ZN4cvc58internal4expr9NodeValue3decEv.exit.i, %if.then
  %.lcssa.i = phi ptr [ %0, %if.then ], [ %3, %_ZN4cvc58internal4expr9NodeValue3decEv.exit.i ]
  tail call void @free(ptr noundef nonnull %.lcssa.i) #23
  store ptr %this, ptr %d_nv.i, align 8
  %d_nvMaxChildren.i = getelementptr inbounds i8, ptr %this, i64 112
  store i32 10, ptr %d_nvMaxChildren.i, align 8
  br label %if.end5

if.else:                                          ; preds = %entry
  %cmp.i = icmp eq ptr %0, null
  br i1 %cmp.i, label %if.else4, label %if.then3

if.then3:                                         ; preds = %if.else
  %d_children.i.ptr.i = getelementptr inbounds i8, ptr %this, i64 16
  %d_nchildren.i.i7 = getelementptr inbounds i8, ptr %this, i64 12
  %bf.load.i5.i = load i32, ptr %d_nchildren.i.i7, align 4
  %bf.clear.i6.i = and i32 %bf.load.i5.i, 67108863
  %cmp.not9.i = icmp eq i32 %bf.clear.i6.i, 0
  br i1 %cmp.not9.i, label %_ZN4cvc58internal11NodeBuilder13decrRefCountsEv.exit, label %for.body.i8

for.body.i8:                                      ; preds = %if.then3, %_ZN4cvc58internal4expr9NodeValue3decEv.exit.i17
  %i.010.i = phi ptr [ %incdec.ptr.i18, %_ZN4cvc58internal4expr9NodeValue3decEv.exit.i17 ], [ %d_children.i.ptr.i, %if.then3 ]
  %4 = load ptr, ptr %i.010.i, align 8
  %bf.load.i4.i9 = load i64, ptr %4, align 8
  %5 = and i64 %bf.load.i4.i9, 1152920405095219200
  %cmp.not.i.i10 = icmp eq i64 %5, 1152920405095219200
  br i1 %cmp.not.i.i10, label %_ZN4cvc58internal4expr9NodeValue3decEv.exit.i17, label %if.then.i.i11

if.then.i.i11:                                    ; preds = %for.body.i8
  %bf.value.i.i12 = add i64 %bf.load.i4.i9, 1152920405095219200
  %bf.shl.i.i13 = and i64 %bf.value.i.i12, 1152920405095219200
  %bf.clear7.i.i14 = and i64 %bf.load.i4.i9, -1152920405095219201
  %bf.set.i.i15 = or disjoint i64 %bf.shl.i.i13, %bf.clear7.i.i14
  store i64 %bf.set.i.i15, ptr %4, align 8
  %cmp12.i.i16 = icmp eq i64 %bf.shl.i.i13, 0
  br i1 %cmp12.i.i16, label %if.then13.i.i24, label %_ZN4cvc58internal4expr9NodeValue3decEv.exit.i17

if.then13.i.i24:                                  ; preds = %if.then.i.i11
  tail call void @_ZN4cvc58internal4expr9NodeValue15markForDeletionEv(ptr noundef nonnull align 8 dereferenceable(16) %4)
  br label %_ZN4cvc58internal4expr9NodeValue3decEv.exit.i17

_ZN4cvc58internal4expr9NodeValue3decEv.exit.i17:  ; preds = %if.then13.i.i24, %if.then.i.i11, %for.body.i8
  %incdec.ptr.i18 = getelementptr inbounds i8, ptr %i.010.i, i64 8
  %bf.load.i.i19 = load i32, ptr %d_nchildren.i.i7, align 4
  %bf.clear.i.i20 = and i32 %bf.load.i.i19, 67108863
  %idx.ext.i.i21 = zext nneg i32 %bf.clear.i.i20 to i64
  %add.ptr.i.i22 = getelementptr inbounds ptr, ptr %d_children.i.ptr.i, i64 %idx.ext.i.i21
  %cmp.not.i23 = icmp eq ptr %incdec.ptr.i18, %add.ptr.i.i22
  br i1 %cmp.not.i23, label %_ZN4cvc58internal11NodeBuilder13decrRefCountsEv.exit, label %for.body.i8, !llvm.loop !7

_ZN4cvc58internal11NodeBuilder13decrRefCountsEv.exit: ; preds = %_ZN4cvc58internal4expr9NodeValue3decEv.exit.i17, %if.then3
  %bf.load.i.lcssa.i = phi i32 [ %bf.load.i5.i, %if.then3 ], [ %bf.load.i.i19, %_ZN4cvc58internal4expr9NodeValue3decEv.exit.i17 ]
  %bf.clear.i = and i32 %bf.load.i.lcssa.i, -67108864
  store i32 %bf.clear.i, ptr %d_nchildren.i.i7, align 4
  br label %if.end5

if.else4:                                         ; preds = %if.else
  store ptr %this, ptr %d_nv.i, align 8
  br label %if.end5

if.end5:                                          ; preds = %_ZN4cvc58internal11NodeBuilder13decrRefCountsEv.exit, %if.else4, %_ZN4cvc58internal11NodeBuilder7deallocEv.exit
  %d_kind = getelementptr inbounds i8, ptr %this, i64 8
  %6 = trunc i32 %k to i16
  %7 = and i16 %6, 1023
  %bf.load = load i16, ptr %d_kind, align 8
  %bf.clear = and i16 %bf.load, -1024
  %bf.set = or disjoint i16 %bf.clear, %7
  store i16 %bf.set, ptr %d_kind, align 8
  %d_children.i.ptr = getelementptr inbounds i8, ptr %this, i64 16
  %d_nchildren.i = getelementptr inbounds i8, ptr %this, i64 12
  %bf.load.i30 = load i32, ptr %d_nchildren.i, align 4
  %bf.clear.i2731 = and i32 %bf.load.i30, 67108863
  %cmp.not34 = icmp eq i32 %bf.clear.i2731, 0
  br i1 %cmp.not34, label %for.end, label %for.body

for.body:                                         ; preds = %if.end5, %_ZN4cvc58internal4expr9NodeValue3decEv.exit
  %i.035 = phi ptr [ %incdec.ptr, %_ZN4cvc58internal4expr9NodeValue3decEv.exit ], [ %d_children.i.ptr, %if.end5 ]
  %8 = load ptr, ptr %i.035, align 8
  %bf.load.i28 = load i64, ptr %8, align 8
  %9 = and i64 %bf.load.i28, 1152920405095219200
  %cmp.not.i29 = icmp eq i64 %9, 1152920405095219200
  br i1 %cmp.not.i29, label %_ZN4cvc58internal4expr9NodeValue3decEv.exit, label %if.then.i

if.then.i:                                        ; preds = %for.body
  %bf.value.i = add i64 %bf.load.i28, 1152920405095219200
  %bf.shl.i = and i64 %bf.value.i, 1152920405095219200
  %bf.clear7.i = and i64 %bf.load.i28, -1152920405095219201
  %bf.set.i = or disjoint i64 %bf.shl.i, %bf.clear7.i
  store i64 %bf.set.i, ptr %8, align 8
  %cmp12.i = icmp eq i64 %bf.shl.i, 0
  br i1 %cmp12.i, label %if.then13.i, label %_ZN4cvc58internal4expr9NodeValue3decEv.exit

if.then13.i:                                      ; preds = %if.then.i
  tail call void @_ZN4cvc58internal4expr9NodeValue15markForDeletionEv(ptr noundef nonnull align 8 dereferenceable(16) %8)
  br label %_ZN4cvc58internal4expr9NodeValue3decEv.exit

_ZN4cvc58internal4expr9NodeValue3decEv.exit:      ; preds = %for.body, %if.then.i, %if.then13.i
  %incdec.ptr = getelementptr inbounds i8, ptr %i.035, i64 8
  %bf.load.i = load i32, ptr %d_nchildren.i, align 4
  %bf.clear.i27 = and i32 %bf.load.i, 67108863
  %idx.ext.i = zext nneg i32 %bf.clear.i27 to i64
  %add.ptr.i = getelementptr inbounds ptr, ptr %d_children.i.ptr, i64 %idx.ext.i
  %cmp.not = icmp eq ptr %incdec.ptr, %add.ptr.i
  br i1 %cmp.not, label %for.end, label %for.body, !llvm.loop !11

for.end:                                          ; preds = %_ZN4cvc58internal4expr9NodeValue3decEv.exit, %if.end5
  %bf.load.i.lcssa = phi i32 [ %bf.load.i30, %if.end5 ], [ %bf.load.i, %_ZN4cvc58internal4expr9NodeValue3decEv.exit ]
  %bf.clear13 = and i32 %bf.load.i.lcssa, -67108864
  store i32 %bf.clear13, ptr %d_nchildren.i, align 4
  %cmp15 = icmp ne i32 %k, -1
  %conv = zext i1 %cmp15 to i64
  %bf.load17 = load i64, ptr %this, align 8
  %bf.clear19 = and i64 %bf.load17, -1099511627776
  %bf.set20 = or disjoint i64 %bf.clear19, %conv
  store i64 %bf.set20, ptr %this, align 8
  ret void
}